target datalayout = "e-m:e-p270:32:32-p271:32:32-p272:64:64-i64:64-i128:128-f80:128-n8:16:32:64-S128"
target triple = "x86_64-pc-linux-gnu"

%"struct.Luau::CodeGen::A64::RegisterA64" = type { i8 }
%"class.Luau::CodeGen::A64::AssemblyBuilderA64" = type { %"class.std::vector", %"class.std::vector.0", %"class.std::__cxx11::basic_string", i8, i32, i32, %"class.std::vector.8", %"class.std::vector.0", i8, i8, i64, ptr, ptr }
%"class.std::vector" = type { %"struct.std::_Vector_base" }
%"struct.std::_Vector_base" = type { %"struct.std::_Vector_base<unsigned char, std::allocator<unsigned char>>::_Vector_impl" }
%"struct.std::_Vector_base<unsigned char, std::allocator<unsigned char>>::_Vector_impl" = type { %"struct.std::_Vector_base<unsigned char, std::allocator<unsigned char>>::_Vector_impl_data" }
%"struct.std::_Vector_base<unsigned char, std::allocator<unsigned char>>::_Vector_impl_data" = type { ptr, ptr, ptr }
%"class.std::__cxx11::basic_string" = type { %"struct.std::__cxx11::basic_string<char>::_Alloc_hider", i64, %union.anon }
%"struct.std::__cxx11::basic_string<char>::_Alloc_hider" = type { ptr }
%union.anon = type { i64, [8 x i8] }
%"class.std::vector.8" = type { %"struct.std::_Vector_base.9" }
%"struct.std::_Vector_base.9" = type { %"struct.std::_Vector_base<Luau::CodeGen::A64::AssemblyBuilderA64::Patch, std::allocator<Luau::CodeGen::A64::AssemblyBuilderA64::Patch>>::_Vector_impl" }
%"struct.std::_Vector_base<Luau::CodeGen::A64::AssemblyBuilderA64::Patch, std::allocator<Luau::CodeGen::A64::AssemblyBuilderA64::Patch>>::_Vector_impl" = type { %"struct.std::_Vector_base<Luau::CodeGen::A64::AssemblyBuilderA64::Patch, std::allocator<Luau::CodeGen::A64::AssemblyBuilderA64::Patch>>::_Vector_impl_data" }
%"struct.std::_Vector_base<Luau::CodeGen::A64::AssemblyBuilderA64::Patch, std::allocator<Luau::CodeGen::A64::AssemblyBuilderA64::Patch>>::_Vector_impl_data" = type { ptr, ptr, ptr }
%"class.std::vector.0" = type { %"struct.std::_Vector_base.1" }
%"struct.std::_Vector_base.1" = type { %"struct.std::_Vector_base<unsigned int, std::allocator<unsigned int>>::_Vector_impl" }
%"struct.std::_Vector_base<unsigned int, std::allocator<unsigned int>>::_Vector_impl" = type { %"struct.std::_Vector_base<unsigned int, std::allocator<unsigned int>>::_Vector_impl_data" }
%"struct.std::_Vector_base<unsigned int, std::allocator<unsigned int>>::_Vector_impl_data" = type { ptr, ptr, ptr }

@.str.16 = private unnamed_addr constant [4 x i8] c"lsl\00", align 1

; Function Attrs: mustprogress uwtable
define dso_local void @_ZN4Luau7CodeGen3A6418AssemblyBuilderA646commitEv(ptr noundef nonnull align 8 dereferenceable(176) %0) #0 align 2 {
  %2 = alloca ptr, align 8
  store ptr %0, ptr %2, align 8, !tbaa !4
  %3 = load ptr, ptr %2, align 8
  %4 = getelementptr inbounds nuw %"class.Luau::CodeGen::A64::AssemblyBuilderA64", ptr %3, i32 0, i32 12
  %5 = load ptr, ptr %4, align 8, !tbaa !41
  %6 = getelementptr inbounds nuw %"class.Luau::CodeGen::A64::AssemblyBuilderA64", ptr %3, i32 0, i32 11
  %7 = load ptr, ptr %6, align 8, !tbaa !40
  %8 = icmp eq ptr %5, %7
  br i1 %8, label %9, label %10

9:                                                ; preds = %1
  call void @_ZN4Luau7CodeGen3A6418AssemblyBuilderA646extendEv(ptr noundef nonnull align 8 dereferenceable(176) %3)
  br label %10

10:                                               ; preds = %9, %1
  ret void
}

; Function Attrs: mustprogress nounwind uwtable
define dso_local void @_ZN4Luau7CodeGen3A6418AssemblyBuilderA645placeEj(ptr noundef nonnull align 8 dereferenceable(176) %0, i32 noundef %1) #1 align 2 {
  %3 = alloca ptr, align 8
  %4 = alloca i32, align 4
  store ptr %0, ptr %3, align 8, !tbaa !4
  store i32 %1, ptr %4, align 4, !tbaa !11
  %5 = load ptr, ptr %3, align 8
  %6 = load i32, ptr %4, align 4, !tbaa !11
  %7 = getelementptr inbounds nuw %"class.Luau::CodeGen::A64::AssemblyBuilderA64", ptr %5, i32 0, i32 11
  %8 = load ptr, ptr %7, align 8, !tbaa !40
  %9 = getelementptr inbounds nuw i32, ptr %8, i32 1
  store ptr %9, ptr %7, align 8, !tbaa !40
  store i32 %6, ptr %8, align 4, !tbaa !11
  ret void
}

; Function Attrs: mustprogress uwtable
define dso_local void @_ZN4Luau7CodeGen3A6418AssemblyBuilderA648placeBFMEPKcNS1_11RegisterA64ES5_ihii(ptr noundef nonnull align 8 dereferenceable(176) %0, ptr noundef %1, i8 %2, i8 %3, i32 noundef %4, i8 noundef zeroext %5, i32 noundef %6, i32 noundef %7) #0 align 2 {
  %9 = alloca %"struct.Luau::CodeGen::A64::RegisterA64", align 1
  %10 = alloca %"struct.Luau::CodeGen::A64::RegisterA64", align 1
  %11 = alloca ptr, align 8
  %12 = alloca ptr, align 8
  %13 = alloca i32, align 4
  %14 = alloca i8, align 1
  %15 = alloca i32, align 4
  %16 = alloca i32, align 4
  %17 = alloca %"struct.Luau::CodeGen::A64::RegisterA64", align 1
  %18 = alloca %"struct.Luau::CodeGen::A64::RegisterA64", align 1
  %19 = alloca i32, align 4
  %20 = alloca i32, align 4
  %21 = getelementptr inbounds nuw %"struct.Luau::CodeGen::A64::RegisterA64", ptr %9, i32 0, i32 0
  store i8 %2, ptr %21, align 1
  %22 = getelementptr inbounds nuw %"struct.Luau::CodeGen::A64::RegisterA64", ptr %10, i32 0, i32 0
  store i8 %3, ptr %22, align 1
  store ptr %0, ptr %11, align 8, !tbaa !4
  store ptr %1, ptr %12, align 8, !tbaa !61
  store i32 %4, ptr %13, align 4, !tbaa !11
  store i8 %5, ptr %14, align 1, !tbaa !58
  store i32 %6, ptr %15, align 4, !tbaa !11
  store i32 %7, ptr %16, align 4, !tbaa !11
  %23 = load ptr, ptr %11, align 8
  %24 = getelementptr inbounds nuw %"class.Luau::CodeGen::A64::AssemblyBuilderA64", ptr %23, i32 0, i32 3
  %25 = load i8, ptr %24, align 8, !tbaa !15, !range !13, !noundef !14
  %26 = trunc i8 %25 to i1
  br i1 %26, label %27, label %34

27:                                               ; preds = %8
  %28 = load ptr, ptr %12, align 8, !tbaa !61
  call void @llvm.memcpy.p0.p0.i64(ptr align 1 %17, ptr align 1 %9, i64 1, i1 false), !tbaa.struct !57
  call void @llvm.memcpy.p0.p0.i64(ptr align 1 %18, ptr align 1 %10, i64 1, i1 false), !tbaa.struct !57
  %29 = load i32, ptr %13, align 4, !tbaa !11
  %30 = getelementptr inbounds nuw %"struct.Luau::CodeGen::A64::RegisterA64", ptr %17, i32 0, i32 0
  %31 = load i8, ptr %30, align 1
  %32 = getelementptr inbounds nuw %"struct.Luau::CodeGen::A64::RegisterA64", ptr %18, i32 0, i32 0
  %33 = load i8, ptr %32, align 1
  call void @_ZN4Luau7CodeGen3A6418AssemblyBuilderA643logEPKcNS1_11RegisterA64ES5_i(ptr noundef nonnull align 8 dereferenceable(176) %23, ptr noundef %28, i8 %31, i8 %33, i32 noundef %29)
  br label %34

34:                                               ; preds = %27, %8
  call void @llvm.lifetime.start.p0(i64 4, ptr %19) #18
  %35 = load i8, ptr %9, align 1
  %36 = and i8 %35, 7
  %37 = icmp eq i8 %36, 2
  %38 = select i1 %37, i32 -2147483648, i32 0
  store i32 %38, ptr %19, align 4, !tbaa !11
  call void @llvm.lifetime.start.p0(i64 4, ptr %20) #18
  %39 = load i8, ptr %9, align 1
  %40 = and i8 %39, 7
  %41 = icmp eq i8 %40, 2
  %42 = select i1 %41, i32 4194304, i32 0
  store i32 %42, ptr %20, align 4, !tbaa !11
  %43 = load i8, ptr %9, align 1
  %44 = lshr i8 %43, 3
  %45 = zext i8 %44 to i32
  %46 = load i8, ptr %10, align 1
  %47 = lshr i8 %46, 3
  %48 = zext i8 %47 to i32
  %49 = shl i32 %48, 5
  %50 = or i32 %45, %49
  %51 = load i32, ptr %16, align 4, !tbaa !11
  %52 = shl i32 %51, 10
  %53 = or i32 %50, %52
  %54 = load i32, ptr %15, align 4, !tbaa !11
  %55 = shl i32 %54, 16
  %56 = or i32 %53, %55
  %57 = load i32, ptr %20, align 4, !tbaa !11
  %58 = or i32 %56, %57
  %59 = load i8, ptr %14, align 1, !tbaa !58
  %60 = zext i8 %59 to i32
  %61 = shl i32 %60, 23
  %62 = or i32 %58, %61
  %63 = load i32, ptr %19, align 4, !tbaa !11
  %64 = or i32 %62, %63
  call void @_ZN4Luau7CodeGen3A6418AssemblyBuilderA645placeEj(ptr noundef nonnull align 8 dereferenceable(176) %23, i32 noundef %64)
  call void @_ZN4Luau7CodeGen3A6418AssemblyBuilderA646commitEv(ptr noundef nonnull align 8 dereferenceable(176) %23)
  call void @llvm.lifetime.end.p0(i64 4, ptr %20) #18
  call void @llvm.lifetime.end.p0(i64 4, ptr %19) #18
  ret void
}

; Function Attrs: mustprogress uwtable
define dso_local void @_ZN4Luau7CodeGen3A6418AssemblyBuilderA643lslENS1_11RegisterA64ES3_h(ptr noundef nonnull align 8 dereferenceable(176) %0, i8 %1, i8 %2, i8 noundef zeroext %3) #0 align 2 {
  %5 = alloca %"struct.Luau::CodeGen::A64::RegisterA64", align 1
  %6 = alloca %"struct.Luau::CodeGen::A64::RegisterA64", align 1
  %7 = alloca ptr, align 8
  %8 = alloca i8, align 1
  %9 = alloca i32, align 4
  %10 = alloca %"struct.Luau::CodeGen::A64::RegisterA64", align 1
  %11 = alloca %"struct.Luau::CodeGen::A64::RegisterA64", align 1
  %12 = getelementptr inbounds nuw %"struct.Luau::CodeGen::A64::RegisterA64", ptr %5, i32 0, i32 0
  store i8 %1, ptr %12, align 1
  %13 = getelementptr inbounds nuw %"struct.Luau::CodeGen::A64::RegisterA64", ptr %6, i32 0, i32 0
  store i8 %2, ptr %13, align 1
  store ptr %0, ptr %7, align 8, !tbaa !4
  store i8 %3, ptr %8, align 1, !tbaa !58
  %14 = load ptr, ptr %7, align 8
  call void @llvm.lifetime.start.p0(i64 4, ptr %9) #18
  %15 = load i8, ptr %5, align 1
  %16 = and i8 %15, 7
  %17 = icmp eq i8 %16, 2
  %18 = select i1 %17, i32 64, i32 32
  store i32 %18, ptr %9, align 4, !tbaa !11
  call void @llvm.memcpy.p0.p0.i64(ptr align 1 %10, ptr align 1 %5, i64 1, i1 false), !tbaa.struct !57
  call void @llvm.memcpy.p0.p0.i64(ptr align 1 %11, ptr align 1 %6, i64 1, i1 false), !tbaa.struct !57
  %19 = load i8, ptr %8, align 1, !tbaa !58
  %20 = zext i8 %19 to i32
  %21 = load i8, ptr %8, align 1, !tbaa !58
  %22 = zext i8 %21 to i32
  %23 = sub nsw i32 0, %22
  %24 = load i32, ptr %9, align 4, !tbaa !11
  %25 = sub nsw i32 %24, 1
  %26 = and i32 %23, %25
  %27 = load i32, ptr %9, align 4, !tbaa !11
  %28 = sub nsw i32 %27, 1
  %29 = load i8, ptr %8, align 1, !tbaa !58
  %30 = zext i8 %29 to i32
  %31 = sub nsw i32 %28, %30
  %32 = getelementptr inbounds nuw %"struct.Luau::CodeGen::A64::RegisterA64", ptr %10, i32 0, i32 0
  %33 = load i8, ptr %32, align 1
  %34 = getelementptr inbounds nuw %"struct.Luau::CodeGen::A64::RegisterA64", ptr %11, i32 0, i32 0
  %35 = load i8, ptr %34, align 1
  call void @_ZN4Luau7CodeGen3A6418AssemblyBuilderA648placeBFMEPKcNS1_11RegisterA64ES5_ihii(ptr noundef nonnull align 8 dereferenceable(176) %14, ptr noundef @.str.16, i8 %33, i8 %35, i32 noundef %20, i8 noundef zeroext -90, i32 noundef %26, i32 noundef %31)
  call void @llvm.lifetime.end.p0(i64 4, ptr %9) #18
  ret void
}