; Function Attrs: mustprogress uwtable
define dso_local void @_ZN4Luau7CodeGen3A6418AssemblyBuilderA643lslENS1_11RegisterA64ES3_h(ptr noundef nonnull align 8 dereferenceable(176) %0, i8 %1, i8 %2, i8 noundef zeroext %3) local_unnamed_addr #0 align 2 {
  %5 = and i8 %1, 7
  %6 = icmp eq i8 %5, 2
  %7 = zext i8 %3 to i32
  %8 = sub nsw i32 0, %7
  %9 = select i1 %6, i32 63, i32 31
  %10 = and i32 %9, %8
  %11 = sub nsw i32 %9, %7
  %12 = getelementptr inbounds nuw i8, ptr %0, i64 80
  %13 = load i8, ptr %12, align 8, !tbaa !14, !range !46, !noundef !47
  %14 = trunc nuw i8 %13 to i1
  br i1 %14, label %15, label %16

15:                                               ; preds = %4
  tail call void @_ZN4Luau7CodeGen3A6418AssemblyBuilderA643logEPKcNS1_11RegisterA64ES5_i(ptr noundef nonnull align 8 dereferenceable(176) %0, ptr noundef nonnull @.str.16, i8 %1, i8 %2, i32 noundef %7)
  br label %16

16:                                               ; preds = %15, %4
  %17 = lshr i8 %1, 3
  %18 = zext nneg i8 %17 to i32
  %19 = lshr i8 %2, 3
  %20 = zext nneg i8 %19 to i32
  %21 = shl nuw nsw i32 %20, 5
  %22 = or disjoint i32 %21, %18
  %23 = shl nsw i32 %11, 10
  %24 = or disjoint i32 %23, %22
  %25 = shl nuw nsw i32 %10, 16
  %26 = select i1 %6, i32 -2143289344, i32 0
  %27 = or disjoint i32 %25, %26
  %28 = or i32 %24, %27
  %29 = or i32 %28, 1392508928
  %30 = getelementptr inbounds nuw i8, ptr %0, i64 160
  %31 = load ptr, ptr %30, align 8, !tbaa !39
  %32 = getelementptr inbounds nuw i8, ptr %31, i64 4
  store ptr %32, ptr %30, align 8, !tbaa !39
  store i32 %29, ptr %31, align 4, !tbaa !48
  %33 = getelementptr inbounds nuw i8, ptr %0, i64 168
  %34 = load ptr, ptr %33, align 8, !tbaa !40
  %35 = icmp eq ptr %34, %32
  br i1 %35, label %36, label %_ZN4Luau7CodeGen3A6418AssemblyBuilderA648placeBFMEPKcNS1_11RegisterA64ES5_ihii.exit

36:                                               ; preds = %16
  tail call void @_ZN4Luau7CodeGen3A6418AssemblyBuilderA646extendEv(ptr noundef nonnull align 8 dereferenceable(176) %0)
  br label %_ZN4Luau7CodeGen3A6418AssemblyBuilderA648placeBFMEPKcNS1_11RegisterA64ES5_ihii.exit

_ZN4Luau7CodeGen3A6418AssemblyBuilderA648placeBFMEPKcNS1_11RegisterA64ES5_ihii.exit: ; preds = %16, %36
  ret void
}